(iqutip.odedata
Odedata
p0
(dp1
S'ntraj'
p2
NsS'solver'
p3
S'mesolve'
p4
sS'col_which'
p5
NsS'num_expect'
p6
I0
sS'times'
p7
cnumpy.core.multiarray
_reconstruct
p8
(cnumpy
ndarray
p9
(I0
tp10
S'b'
p11
tp12
Rp13
(I1
(I2
tp14
cnumpy
dtype
p15
(S'f8'
p16
I0
I1
tp17
Rp18
(I3
S'<'
p19
NNNI-1
I-1
I0
tp20
bI00
S'\x00\x00\x00\x00\x00\x00\x00\x00{\x14\xaeG\xe1z\x84?'
p21
tp22
bsS'states'
p23
(lp24
sS'expect'
p25
(lp26
sS'col_times'
p27
NsS'num_collapse'
p28
I0
sb.