(lp0
S'C:/Users/lattice/Desktop/LabRAD/lattice/experiments/LineScans/Modulation Scan with Agilent.lre'
p1
aS'C:/Users/lattice/Desktop/LabRAD/lattice/experiments/LineScans/866 Cavity Scan.lre'
p2
aS'C:/Users/lattice/Desktop/LabRAD/lattice/experiments/LineScans/397 Cavity Scan.lre'
p3
aS'C:/Users/lattice/Desktop/LabRAD/lattice/experiments/Calibrations/calibrateCavity.lre'
p4
aS'C:/Users/lattice/Desktop/LabRAD/lattice/experiments/Crystallization/swtichXtalOn.lre'
p5
a.