(lp0
S'C:/Users/lattice/Desktop/LabRAD/lattice/experiments/LineScans/397 Cavity Scan.lre'
p1
aS'C:/Users/lattice/Desktop/LabRAD/lattice/experiments/LineScans/Modulation Cavity Scan with Agilent.lre'
p2
aS'C:/Users/lattice/Desktop/LabRAD/lattice/experiments/LineScans/Modulation Scan with Agilent.lre'
p3
aS'C:/Users/lattice/Desktop/LabRAD/lattice/experiments/LineScans/866 Cavity Scan.lre'
p4
a.