(dp1
S'super_node'
p2
ccopy_reg
_reconstructor
p3
(ctwisted.plugin
CachedDropin
p4
c__builtin__
object
p5
NtRp6
(dp7
S'moduleName'
p8
S'labrad.servers.super_node'
p9
sS'description'
p10
S'\nSuper Node\n\nThis labrad server finds and controls all available nodes.\n'
p11
sS'plugins'
p12
(lp13
g3
(ctwisted.plugin
CachedPlugin
p14
g5
NtRp15
(dp16
S'provided'
p17
(lp18
ctwisted.plugin
IPlugin
p19
aclabrad.interfaces
ILabradServer
p20
actwisted.internet.interfaces
IProtocolFactory
p21
asS'dropin'
p22
g6
sS'name'
p23
S'__server__'
p24
sg10
S'A server mapping nodes to devices.'
p25
sbasbsS'loop_server'
p26
g3
(g4
g5
NtRp27
(dp28
g8
S'labrad.servers.loop_server'
p29
sg10
Nsg12
(lp30
g3
(g14
g5
NtRp31
(dp32
g17
(lp33
g19
ag20
ag21
asg22
g27
sg23
g24
sg10
NsbasbsS'server_template'
p34
g3
(g4
g5
NtRp35
(dp36
g8
S'labrad.servers.server_template'
p37
sg10
Nsg12
(lp38
g3
(g14
g5
NtRp39
(dp40
g17
(lp41
g19
ag20
ag21
asg22
g35
sg23
g24
sg10
S'Template for a python LabRAD server.\n    \n    This doc string will appear as descriptive help text when\n    this server connects to LabRAD.\n    '
p42
sbasbsS'dying_test_server'
p43
g3
(g4
g5
NtRp44
(dp45
g8
S'labrad.servers.dying_test_server'
p46
sg10
Nsg12
(lp47
g3
(g14
g5
NtRp48
(dp49
g17
(lp50
g19
ag20
ag21
asg22
g44
sg23
g24
sg10
S'Server to test labrad from python.\n\n    This server provides a number of settings that\n    are useful for testing labrad code, network profiling,\n    and testing the python labrad library.\n    '
p51
sbasbsS'test_server'
p52
g3
(g4
g5
NtRp53
(dp54
g8
S'labrad.servers.test_server'
p55
sg10
Nsg12
(lp56
g3
(g14
g5
NtRp57
(dp58
g17
(lp59
g19
ag20
ag21
asg22
g53
sg23
g24
sg10
S'Server to test labrad from python.\n\n    This server provides a number of settings that\n    are useful for testing labrad code, network profiling,\n    and testing the python labrad library.\n    '
p60
sbasbsS'registry_wrapper_async'
p61
g3
(g4
g5
NtRp62
(dp63
g8
S'labrad.servers.registry_wrapper_async'
p64
sg10
Nsg12
(lp65
sbs.